target datalayout = "e-m:e-p270:32:32-p271:32:32-p272:64:64-i64:64-i128:128-f80:128-n8:16:32:64-S128"
target triple = "x86_64-pc-linux-gnu"

@.str = private unnamed_addr constant [58 x i8] c"ACD i-sets with %d variables and column multiplicity %d:\0A\00", align 1
@stdout = external global ptr, align 8
@.str.1 = private unnamed_addr constant [2 x i8] c"\0A\00", align 1

; Function Attrs: nounwind uwtable
define void @Abc_TtPrintPat(ptr noundef %0, i32 noundef %1, i32 noundef %2) #0 {
  %4 = alloca ptr, align 8
  %5 = alloca i32, align 4
  %6 = alloca i32, align 4
  %7 = alloca i32, align 4
  store ptr %0, ptr %4, align 8, !tbaa !3
  store i32 %1, ptr %5, align 4, !tbaa !8
  store i32 %2, ptr %6, align 4, !tbaa !8
  %8 = load i32, ptr %5, align 4, !tbaa !8
  %9 = load i32, ptr %6, align 4, !tbaa !8
  %10 = call i32 (ptr, ...) @printf(ptr noundef @.str, i32 noundef %8, i32 noundef %9)
  call void @llvm.lifetime.start.p0(i64 4, ptr %7) #12
  store i32 0, ptr %7, align 4, !tbaa !8
  br label %11

11:                                               ; preds = %25, %3
  %12 = load i32, ptr %7, align 4, !tbaa !8
  %13 = load i32, ptr %6, align 4, !tbaa !8
  %14 = icmp slt i32 %12, %13
  br i1 %14, label %16, label %15

15:                                               ; preds = %11
  call void @llvm.lifetime.end.p0(i64 4, ptr %7) #12
  br label %28

16:                                               ; preds = %11
  %17 = load ptr, ptr @stdout, align 8, !tbaa !62
  %18 = load ptr, ptr %4, align 8, !tbaa !3
  %19 = load i32, ptr %7, align 4, !tbaa !8
  %20 = sext i32 %19 to i64
  %21 = getelementptr inbounds i64, ptr %18, i64 %20
  %22 = load i32, ptr %5, align 4, !tbaa !8
  %23 = shl i32 1, %22
  call void @Extra_PrintBinary(ptr noundef %17, ptr noundef %21, i32 noundef %23)
  %24 = call i32 (ptr, ...) @printf(ptr noundef @.str.1)
  br label %25

25:                                               ; preds = %16
  %26 = load i32, ptr %7, align 4, !tbaa !8
  %27 = add nsw i32 %26, 1
  store i32 %27, ptr %7, align 4, !tbaa !8
  br label %11, !llvm.loop !64

28:                                               ; preds = %15
  ret void
}