; Function Attrs: nounwind uwtable
define void @Abc_TtPrintPat(ptr noundef %0, i32 noundef %1, i32 noundef %2) local_unnamed_addr #3 {
  %4 = tail call i32 (ptr, ...) @printf(ptr noundef nonnull dereferenceable(1) @.str, i32 noundef %1, i32 noundef %2)
  %5 = icmp sgt i32 %2, 0
  br i1 %5, label %.lr.ph, label %._crit_edge

.lr.ph:                                           ; preds = %3
  %6 = shl nuw i32 1, %1
  %wide.trip.count = zext nneg i32 %2 to i64
  br label %7

._crit_edge:                                      ; preds = %7, %3
  ret void

7:                                                ; preds = %.lr.ph, %7
  %indvars.iv = phi i64 [ 0, %.lr.ph ], [ %indvars.iv.next, %7 ]
  %8 = load ptr, ptr @stdout, align 8, !tbaa !52
  %9 = getelementptr inbounds nuw i64, ptr %0, i64 %indvars.iv
  tail call void @Extra_PrintBinary(ptr noundef %8, ptr noundef %9, i32 noundef %6) #24
  %putchar = tail call i32 @putchar(i32 10)
  %indvars.iv.next = add nuw nsw i64 %indvars.iv, 1
  %exitcond.not = icmp eq i64 %indvars.iv.next, %wide.trip.count
  br i1 %exitcond.not, label %._crit_edge, label %7, !llvm.loop !54
}